; Function Attrs: mustprogress nounwind uwtable
define dso_local noundef zeroext i1 @_ZN5clang4Sema34PrepareBuiltinReduceMathOneArgCallEPNS_8CallExprE(ptr noundef nonnull align 8 dereferenceable(17560) %0, ptr noundef %1) local_unnamed_addr #0 align 2 {
  %3 = tail call noundef zeroext i1 @_ZN5clang4Sema13checkArgCountEPNS_8CallExprEj(ptr noundef nonnull align 8 dereferenceable(17560) %0, ptr noundef %1, i32 noundef 1)
  br i1 %3, label %29, label %4

4:                                                ; preds = %2
  %5 = load i32, ptr %1, align 8
  %6 = lshr i32 %5, 24
  %7 = zext nneg i32 %6 to i64
  %8 = getelementptr inbounds i8, ptr %1, i64 %7
  %9 = getelementptr inbounds i8, ptr %8, i64 8
  %10 = lshr i32 %5, 18
  %11 = and i32 %10, 1
  %12 = zext nneg i32 %11 to i64
  %13 = getelementptr inbounds ptr, ptr %9, i64 %12
  %14 = load ptr, ptr %13, align 8
  %15 = tail call i64 @_ZN5clang4Sema21UsualUnaryConversionsEPNS_4ExprE(ptr noundef nonnull align 8 dereferenceable(17560) %0, ptr noundef %14) #25
  %16 = icmp eq i64 %15, 1
  br i1 %16, label %29, label %17

17:                                               ; preds = %4
  %18 = and i64 %15, -2
  %19 = inttoptr i64 %18 to ptr
  %20 = load i32, ptr %1, align 8
  %21 = lshr i32 %20, 24
  %22 = zext nneg i32 %21 to i64
  %23 = getelementptr inbounds i8, ptr %1, i64 %22
  %24 = getelementptr inbounds i8, ptr %23, i64 8
  %25 = lshr i32 %20, 18
  %26 = and i32 %25, 1
  %27 = zext nneg i32 %26 to i64
  %28 = getelementptr inbounds ptr, ptr %24, i64 %27
  store ptr %19, ptr %28, align 8
  br label %29

29:                                               ; preds = %4, %2, %17
  %.0 = phi i1 [ false, %17 ], [ true, %2 ], [ true, %4 ]
  ret i1 %.0
}